; Function Attrs: mustprogress uwtable
define hidden void @_ZN7datalog7context16display_rel_declERSoP9func_decl(ptr nocapture noundef nonnull readonly align 8 dereferenceable(3556) %this, ptr noundef nonnull align 8 dereferenceable(8) %out, ptr noundef %f) local_unnamed_addr #3 align 2 personality ptr @__gxx_personality_v0 {
entry:
  %env = alloca %class.smt2_pp_environment_dbg, align 8
  %ref.tmp = alloca %class.params_ref, align 8
  %0 = load ptr, ptr %this, align 8
  call void @_ZN23smt2_pp_environment_dbgC2ER11ast_manager(ptr noundef nonnull align 8 dereferenceable(640) %env, ptr noundef nonnull align 8 dereferenceable(976) %0)
  %call = invoke noundef nonnull align 8 dereferenceable(8) ptr @_ZStlsISt11char_traitsIcEERSt13basic_ostreamIcT_ES5_PKc(ptr noundef nonnull align 8 dereferenceable(8) %out, ptr noundef nonnull @.str.41)
          to label %invoke.cont unwind label %lpad.loopexit.split-lp

invoke.cont:                                      ; preds = %entry
  %m_name.i = getelementptr inbounds i8, ptr %f, i64 16
  %call5 = invoke fastcc noundef nonnull align 8 dereferenceable(8) ptr @_ZN7datalogL14display_symbolERSoRK6symbol(ptr noundef nonnull align 8 dereferenceable(8) %out, ptr noundef nonnull align 8 dereferenceable(8) %m_name.i)
          to label %invoke.cont4 unwind label %lpad.loopexit.split-lp

invoke.cont4:                                     ; preds = %invoke.cont
  %call7 = invoke noundef nonnull align 8 dereferenceable(8) ptr @_ZStlsISt11char_traitsIcEERSt13basic_ostreamIcT_ES5_PKc(ptr noundef nonnull align 8 dereferenceable(8) %out, ptr noundef nonnull @.str.42)
          to label %for.cond.preheader unwind label %lpad.loopexit.split-lp

for.cond.preheader:                               ; preds = %invoke.cont4
  %m_arity.i = getelementptr inbounds i8, ptr %f, i64 32
  %1 = load i32, ptr %m_arity.i, align 8
  %cmp15.not = icmp eq i32 %1, 0
  br i1 %cmp15.not, label %for.end, label %for.body.lr.ph

for.body.lr.ph:                                   ; preds = %for.cond.preheader
  %m_domain.i = getelementptr inbounds i8, ptr %f, i64 48
  br label %for.body

for.body:                                         ; preds = %for.body.lr.ph, %for.inc
  %indvars.iv = phi i64 [ 0, %for.body.lr.ph ], [ %indvars.iv.next, %for.inc ]
  %arrayidx.i = getelementptr inbounds [0 x ptr], ptr %m_domain.i, i64 0, i64 %indvars.iv
  %2 = load ptr, ptr %arrayidx.i, align 8
  store ptr null, ptr %ref.tmp, align 8
  %call15 = invoke noundef nonnull align 8 dereferenceable(8) ptr @_Z11ast_smt2_ppRSoP4sortR19smt2_pp_environmentRK10params_refj(ptr noundef nonnull align 8 dereferenceable(8) %out, ptr noundef %2, ptr noundef nonnull align 8 dereferenceable(56) %env, ptr noundef nonnull align 8 dereferenceable(8) %ref.tmp, i32 noundef 0)
          to label %invoke.cont14 unwind label %lpad13

invoke.cont14:                                    ; preds = %for.body
  call void @_ZN10params_refD1Ev(ptr noundef nonnull align 8 dereferenceable(8) %ref.tmp) #25
  %indvars.iv.next = add nuw nsw i64 %indvars.iv, 1
  %3 = load i32, ptr %m_arity.i, align 8
  %4 = zext i32 %3 to i64
  %cmp18 = icmp ult i64 %indvars.iv.next, %4
  br i1 %cmp18, label %if.then, label %for.inc

if.then:                                          ; preds = %invoke.cont14
  %call20 = invoke noundef nonnull align 8 dereferenceable(8) ptr @_ZStlsISt11char_traitsIcEERSt13basic_ostreamIcT_ES5_PKc(ptr noundef nonnull align 8 dereferenceable(8) %out, ptr noundef nonnull @.str.12)
          to label %if.then.for.inc_crit_edge unwind label %lpad.loopexit

if.then.for.inc_crit_edge:                        ; preds = %if.then
  %.pre = load i32, ptr %m_arity.i, align 8
  %.pre18 = zext i32 %.pre to i64
  br label %for.inc

lpad.loopexit:                                    ; preds = %if.then
  %lpad.loopexit13 = landingpad { ptr, i32 }
          cleanup
  br label %ehcleanup

lpad.loopexit.split-lp:                           ; preds = %entry, %invoke.cont, %invoke.cont4, %for.end
  %lpad.loopexit.split-lp14 = landingpad { ptr, i32 }
          cleanup
  br label %ehcleanup

lpad13:                                           ; preds = %for.body
  %5 = landingpad { ptr, i32 }
          cleanup
  call void @_ZN10params_refD1Ev(ptr noundef nonnull align 8 dereferenceable(8) %ref.tmp) #25
  br label %ehcleanup

for.inc:                                          ; preds = %if.then.for.inc_crit_edge, %invoke.cont14
  %.pre-phi = phi i64 [ %.pre18, %if.then.for.inc_crit_edge ], [ %4, %invoke.cont14 ]
  %cmp = icmp ult i64 %indvars.iv.next, %.pre-phi
  br i1 %cmp, label %for.body, label %for.end, !llvm.loop !56

for.end:                                          ; preds = %for.inc, %for.cond.preheader
  %call22 = invoke noundef nonnull align 8 dereferenceable(8) ptr @_ZStlsISt11char_traitsIcEERSt13basic_ostreamIcT_ES5_PKc(ptr noundef nonnull align 8 dereferenceable(8) %out, ptr noundef nonnull @.str.43)
          to label %invoke.cont21 unwind label %lpad.loopexit.split-lp

invoke.cont21:                                    ; preds = %for.end
  call void @_ZN23smt2_pp_environment_dbgD2Ev(ptr noundef nonnull align 8 dereferenceable(640) %env) #25
  ret void

ehcleanup:                                        ; preds = %lpad.loopexit, %lpad.loopexit.split-lp, %lpad13
  %.pn = phi { ptr, i32 } [ %5, %lpad13 ], [ %lpad.loopexit13, %lpad.loopexit ], [ %lpad.loopexit.split-lp14, %lpad.loopexit.split-lp ]
  call void @_ZN23smt2_pp_environment_dbgD2Ev(ptr noundef nonnull align 8 dereferenceable(640) %env) #25
  resume { ptr, i32 } %.pn
}